(dp0
I97
S'url_key'
p1
sI98
S'url_path'
p2
sI71
S'name'
p3
sI72
S'description'
p4
sI73
S'short_description'
p5
sI75
S'price'
p6
sI143
S'ws_location'
p7
sI80
S'weight'
p8
sI82
S'meta_title'
p9
sI84
S'meta_description'
p10
sI85
S'image'
p11
sI152
S'mood'
p12
sI153
S'style'
p13
sI92
S'color'
p14
s.